******************************************************************************
                  TI ARM Linker PC v5.1.6                      
******************************************************************************
>> Linked Thu Dec 22 02:14:19 2016

OUTPUT FILE NAME:   <IMU_UM6.out>
ENTRY POINT SYMBOL: "_c_int00"  address: 00002d45


MEMORY CONFIGURATION

         name            origin    length      used     unused   attr    fill
----------------------  --------  ---------  --------  --------  ----  --------
  FLASH                 00000000   00040000  00003072  0003cf8e  R  X
  SRAM                  20000000   00008000  00000448  00007bb8  RW X


SEGMENT ALLOCATION MAP

run origin  load origin   length   init length attrs members
----------  ----------- ---------- ----------- ----- -------
00000000    00000000    00003078   00003078    r-x
  00000000    00000000    0000026c   0000026c    r-- .intvecs
  0000026c    0000026c    00002d9e   00002d9e    r-x .text
  00003010    00003010    00000068   00000068    r-- .cinit
20000000    20000000    00000448   00000000    rw-
  20000000    20000000    00000200   00000000    rw- .stack
  20000200    20000200    0000018c   00000000    rw- .data
  2000038c    2000038c    000000bc   00000000    rw- .bss


SECTION ALLOCATION MAP

 output                                  attributes/
section   page    origin      length       input sections
--------  ----  ----------  ----------   ----------------
.intvecs   0    00000000    0000026c     
                  00000000    0000026c     tm4c123gh6pge_startup_ccs.obj (.intvecs)

.init_array 
*          0    00000000    00000000     UNINITIALIZED

.text      0    0000026c    00002d9e     
                  0000026c    0000214c     main.obj (.text)
                  000023b8    000001b6     rtsv7M4_T_le_v4SPD16_eabi.lib : fd_add_t2.obj (.text)
                  0000256e    00000002     --HOLE-- [fill = 0]
                  00002570    0000016c                                   : fmod.obj (.text)
                  000026dc    00000136                                   : fd_div_t2.obj (.text)
                  00002812    00000002     --HOLE-- [fill = 0]
                  00002814    00000110                                   : xdscale.obj (.text)
                  00002924    000000fc                                   : fd_mul_t2.obj (.text)
                  00002a20    000000c4                                   : xdnorm.obj (.text)
                  00002ae4    0000009c                                   : memcpy_t2.obj (.text)
                  00002b80    00000094                                   : auto_init.obj (.text)
                  00002c14    00000086                                   : fd_cmp_t2.obj (.text:__aeabi_cdcmple)
                  00002c9a    0000005e                                   : copy_decompress_rle.obj (.text)
                  00002cf8    0000004a                                   : fd_tos_t2.obj (.text)
                  00002d42    00000002     --HOLE-- [fill = 0]
                  00002d44    00000048                                   : boot.obj (.text)
                  00002d8c    00000048                                   : fd_toi_t2.obj (.text)
                  00002dd4    00000044                                   : cpy_tbl.obj (.text)
                  00002e18    00000044                                   : exit.obj (.text)
                  00002e5c    00000044                                   : xdtest.obj (.text)
                  00002ea0    00000040                                   : signal.obj (.text)
                  00002ee0    00000038                                   : fs_tod_t2.obj (.text)
                  00002f18    00000034                                   : feraiseexcept.obj (.text)
                  00002f4c    00000030                                   : xferaise.obj (.text)
                  00002f7c    0000002e                                   : raise.obj (.text)
                  00002faa    00000002     --HOLE-- [fill = 0]
                  00002fac    00000018                                   : args_main.obj (.text)
                  00002fc4    00000014                                   : _lock.obj (.text)
                  00002fd8    00000012                                   : copy_zero_init.obj (.text:decompress:ZI)
                  00002fea    0000000e                                   : copy_decompress_none.obj (.text:decompress:none)
                  00002ff8    0000000c     tm4c123gh6pge_startup_ccs.obj (.text)
                  00003004    00000006     rtsv7M4_T_le_v4SPD16_eabi.lib : copy_decompress_rle.obj (.text:decompress:rle24)

.cinit     0    00003010    00000068     
                  00003010    00000041     (.cinit..data.load) [load image, compression = rle]
                  00003051    00000003     --HOLE-- [fill = 0]
                  00003054    0000000c     (__TI_handler_table)
                  00003060    00000008     (.cinit..bss.load) [load image, compression = zero_init]
                  00003068    00000010     (__TI_cinit_table)

.stack     0    20000000    00000200     UNINITIALIZED
                  20000000    00000200     --HOLE--

.data      0    20000200    0000018c     UNINITIALIZED
                  20000200    000000b0     rtsv7M4_T_le_v4SPD16_eabi.lib : signal.obj (.data:sigtable)
                  200002b0    00000080                                   : xvalues.obj (.data)
                  20000330    0000003c     main.obj (.data)
                  2000036c    00000008     rtsv7M4_T_le_v4SPD16_eabi.lib : _lock.obj (.data)
                  20000374    00000008                                   : exit.obj (.data)
                  2000037c    00000008                                   : feraiseexcept.obj (.data)
                  20000384    00000004                                   : errno.obj (.data)
                  20000388    00000004                                   : stkdepth_vars.obj (.data)

.bss       0    2000038c    000000bc     UNINITIALIZED
                  2000038c    00000078     main.obj (.bss:data)
                  20000404    00000004     (.common:address)
                  20000408    00000004     (.common:batch_length)
                  2000040c    00000004     (.common:checksum0)
                  20000410    00000004     (.common:checksum1)
                  20000414    00000004     (.common:checksum10)
                  20000418    00000004     (.common:computed_checksum)
                  2000041c    00000004     (.common:data_index)
                  20000420    00000004     (.common:data_length)
                  20000424    00000004     (.common:packet_has_data)
                  20000428    00000004     (.common:packet_is_batch)
                  2000042c    00000004     (.common:packet_type)
                  20000430    00000004     (.common:pitch)
                  20000434    00000004     (.common:pitch_rate)
                  20000438    00000004     (.common:roll)
                  2000043c    00000004     (.common:roll_rate)
                  20000440    00000004     (.common:yaw)
                  20000444    00000004     (.common:yaw_rate)


LINKER GENERATED COPY TABLES

__TI_cinit_table @ 00003068 records: 2, size/record: 8, table size: 16
	.data: load addr=00003010, load size=00000041 bytes, run addr=20000200, run size=0000018c bytes, compression=rle
	.bss: load addr=00003060, load size=00000008 bytes, run addr=2000038c, run size=000000bc bytes, compression=zero_init


LINKER GENERATED HANDLER TABLE

__TI_handler_table @ 00003054 records: 3, size/record: 4, table size: 12
	index: 0, handler: __TI_decompress_rle24
	index: 1, handler: __TI_decompress_none
	index: 2, handler: __TI_zero_init


GLOBAL SYMBOLS: SORTED ALPHABETICALLY BY Name 

address    name
--------   ----
00002e19   C$$EXIT
00000a0d   ClearPortA
00000a25   ClearPortB
00000a3d   ClearPortC
00000a55   ClearPortD
00000a71   ClearPortE
00000a89   ClearPortF
00000aa1   ClearPortG
00000ab9   ClearPortH
00000acd   ClearPortK
00000ae1   ClearPortL
00000af5   ClearPortM
00000b09   ClearPortN
00000b1d   ClearPortP
000003cf   ClockPortA
000003db   ClockPortB
000003e7   ClockPortC
000003f3   ClockPortD
000003ff   ClockPortE
0000040b   ClockPortF
00000417   ClockPortG
00000423   ClockPortH
0000042f   ClockPortJ
0000043b   ClockPortK
00000447   ClockPortL
00000453   ClockPortM
0000045f   ClockPortN
0000046b   ClockPortP
0000057b   DigitalClearA
0000058f   DigitalClearB
000005a3   DigitalClearC
000005c1   DigitalClearD
000005d5   DigitalClearE
000005f1   DigitalClearF
00000609   DigitalClearG
00000625   DigitalClearH
0000063d   DigitalClearK
00000651   DigitalClearL
00000665   DigitalClearM
00000679   DigitalClearN
0000068d   DigitalClearP
00000477   DigitalSetA
0000048b   DigitalSetB
0000049f   DigitalSetC
000004b3   DigitalSetD
000004c7   DigitalSetE
000004db   DigitalSetF
000004ef   DigitalSetG
00000503   DigitalSetH
00000517   DigitalSetK
0000052b   DigitalSetL
0000053f   DigitalSetM
00000553   DigitalSetN
00000567   DigitalSetP
00000b65   EnableUART0
00000dc5   EnableUART1
00001069   EnableUART2
0000130d   EnableUART3
00001565   EnableUART4
000017e1   EnableUART5
00001a6d   EnableUART6
00001cc1   EnableUART7
0000221d   ISR1
000006a1   InputA
000006b9   InputB
000006dd   InputC
000006f1   InputD
00000709   InputE
0000071d   InputF
00000731   InputG
00000745   InputH
00000759   InputK
0000076d   InputL
00000785   InputM
0000079d   InputN
000007b5   InputP
000007d1   OutputA
000007e9   OutputB
00000801   OutputC
00000819   OutputD
00000835   OutputE
0000084d   OutputF
00000865   OutputG
0000087d   OutputH
00000891   OutputK
000008a5   OutputL
000008b9   OutputM
000008cd   OutputN
000008e1   OutputP
00002ff9   ResetISR
UNDEFED    SHT$$INIT_ARRAY$$Base
UNDEFED    SHT$$INIT_ARRAY$$Limit
000008f5   SetPortA
00000909   SetPortB
0000091d   SetPortC
00000931   SetPortD
00000945   SetPortE
00000959   SetPortF
0000096d   SetPortG
00000981   SetPortH
00000995   SetPortK
000009ad   SetPortL
000009c5   SetPortM
000009d9   SetPortN
000009f5   SetPortP
000002c1   System80Mhz
200002b0   _Denorm
00002a21   _Dnorm
00002815   _Dscale
00002e5d   _Dtest
200002c0   _Eps
20000384   _Errno
2000037c   _Fenv
00002f4d   _Feraise
200002d0   _Hugeval
200002e0   _Inf
200002f0   _Nan
20000310   _Rteps
20000300   _Snan
20000380   _Tls_setup__Fenv
20000320   _Xbig
20000328   _Zero
20000200   __STACK_END
00000200   __STACK_SIZE
20000200   __STACK_TOP
00003068   __TI_CINIT_Base
00003078   __TI_CINIT_Limit
00003054   __TI_Handler_Table_Base
00003060   __TI_Handler_Table_Limit
00000001   __TI_args_main
00002b81   __TI_auto_init
20000374   __TI_cleanup_ptr
00002feb   __TI_decompress_none
00003005   __TI_decompress_rle24
20000378   __TI_dtors_ptr
00000000   __TI_static_base__
00002fd9   __TI_zero_init
00002c15   __aeabi_cdcmpeq
00002c15   __aeabi_cdcmple
00002cf9   __aeabi_d2f
00002d8d   __aeabi_d2iz
000023c3   __aeabi_dadd
000026dd   __aeabi_ddiv
00002925   __aeabi_dmul
000023b9   __aeabi_dsub
00002ee1   __aeabi_f2d
00002ae5   __aeabi_memcpy
00002ae5   __aeabi_memcpy4
00002ae5   __aeabi_memcpy8
ffffffff   __binit__
ffffffff   __c_args__
20000000   __stack
00002fad   _args_main
00002d45   _c_int00
2000036c   _lock
00002fd3   _nop
00002fcb   _register_lock
00002fc5   _register_unlock
20000370   _unlock
20000340   a
00002e1d   abort
20000404   address
20000344   angle_rock
20000408   batch_length
ffffffff   binit
00002095   checksum
2000040c   checksum0
20000410   checksum1
20000414   checksum10
20000418   computed_checksum
00002dd5   copy_in
2000038c   data
2000041c   data_index
20000420   data_length
0000026d   delay
00001f39   encode
00002e25   exit
20000330   fbaud
00002f19   feraiseexcept
00002571   fmod
00000000   g_pfnVectors
2000034c   ini
00002261   main
20000388   main_func_sp
20000334   match_hua
00002ae5   memcpy
20000338   nahi_hua
20000424   packet_has_data
20000428   packet_is_batch
2000042c   packet_type
20000430   pitch
20000360   pitch_final
20000434   pitch_rate
2000035c   pitch_raw
00002f7d   raise
20000438   roll
20000368   roll_final
2000043c   roll_rate
20000364   roll_raw
0000214d   save
20000350   sign
00002ea1   signal
2000033c   state
20000348   um6_angle
20000440   yaw
20000358   yaw_final
20000444   yaw_rate
20000354   yaw_raw


GLOBAL SYMBOLS: SORTED BY Symbol Address 

address    name
--------   ----
00000000   __TI_static_base__
00000000   g_pfnVectors
00000001   __TI_args_main
00000200   __STACK_SIZE
0000026d   delay
000002c1   System80Mhz
000003cf   ClockPortA
000003db   ClockPortB
000003e7   ClockPortC
000003f3   ClockPortD
000003ff   ClockPortE
0000040b   ClockPortF
00000417   ClockPortG
00000423   ClockPortH
0000042f   ClockPortJ
0000043b   ClockPortK
00000447   ClockPortL
00000453   ClockPortM
0000045f   ClockPortN
0000046b   ClockPortP
00000477   DigitalSetA
0000048b   DigitalSetB
0000049f   DigitalSetC
000004b3   DigitalSetD
000004c7   DigitalSetE
000004db   DigitalSetF
000004ef   DigitalSetG
00000503   DigitalSetH
00000517   DigitalSetK
0000052b   DigitalSetL
0000053f   DigitalSetM
00000553   DigitalSetN
00000567   DigitalSetP
0000057b   DigitalClearA
0000058f   DigitalClearB
000005a3   DigitalClearC
000005c1   DigitalClearD
000005d5   DigitalClearE
000005f1   DigitalClearF
00000609   DigitalClearG
00000625   DigitalClearH
0000063d   DigitalClearK
00000651   DigitalClearL
00000665   DigitalClearM
00000679   DigitalClearN
0000068d   DigitalClearP
000006a1   InputA
000006b9   InputB
000006dd   InputC
000006f1   InputD
00000709   InputE
0000071d   InputF
00000731   InputG
00000745   InputH
00000759   InputK
0000076d   InputL
00000785   InputM
0000079d   InputN
000007b5   InputP
000007d1   OutputA
000007e9   OutputB
00000801   OutputC
00000819   OutputD
00000835   OutputE
0000084d   OutputF
00000865   OutputG
0000087d   OutputH
00000891   OutputK
000008a5   OutputL
000008b9   OutputM
000008cd   OutputN
000008e1   OutputP
000008f5   SetPortA
00000909   SetPortB
0000091d   SetPortC
00000931   SetPortD
00000945   SetPortE
00000959   SetPortF
0000096d   SetPortG
00000981   SetPortH
00000995   SetPortK
000009ad   SetPortL
000009c5   SetPortM
000009d9   SetPortN
000009f5   SetPortP
00000a0d   ClearPortA
00000a25   ClearPortB
00000a3d   ClearPortC
00000a55   ClearPortD
00000a71   ClearPortE
00000a89   ClearPortF
00000aa1   ClearPortG
00000ab9   ClearPortH
00000acd   ClearPortK
00000ae1   ClearPortL
00000af5   ClearPortM
00000b09   ClearPortN
00000b1d   ClearPortP
00000b65   EnableUART0
00000dc5   EnableUART1
00001069   EnableUART2
0000130d   EnableUART3
00001565   EnableUART4
000017e1   EnableUART5
00001a6d   EnableUART6
00001cc1   EnableUART7
00001f39   encode
00002095   checksum
0000214d   save
0000221d   ISR1
00002261   main
000023b9   __aeabi_dsub
000023c3   __aeabi_dadd
00002571   fmod
000026dd   __aeabi_ddiv
00002815   _Dscale
00002925   __aeabi_dmul
00002a21   _Dnorm
00002ae5   __aeabi_memcpy
00002ae5   __aeabi_memcpy4
00002ae5   __aeabi_memcpy8
00002ae5   memcpy
00002b81   __TI_auto_init
00002c15   __aeabi_cdcmpeq
00002c15   __aeabi_cdcmple
00002cf9   __aeabi_d2f
00002d45   _c_int00
00002d8d   __aeabi_d2iz
00002dd5   copy_in
00002e19   C$$EXIT
00002e1d   abort
00002e25   exit
00002e5d   _Dtest
00002ea1   signal
00002ee1   __aeabi_f2d
00002f19   feraiseexcept
00002f4d   _Feraise
00002f7d   raise
00002fad   _args_main
00002fc5   _register_unlock
00002fcb   _register_lock
00002fd3   _nop
00002fd9   __TI_zero_init
00002feb   __TI_decompress_none
00002ff9   ResetISR
00003005   __TI_decompress_rle24
00003054   __TI_Handler_Table_Base
00003060   __TI_Handler_Table_Limit
00003068   __TI_CINIT_Base
00003078   __TI_CINIT_Limit
20000000   __stack
20000200   __STACK_END
20000200   __STACK_TOP
200002b0   _Denorm
200002c0   _Eps
200002d0   _Hugeval
200002e0   _Inf
200002f0   _Nan
20000300   _Snan
20000310   _Rteps
20000320   _Xbig
20000328   _Zero
20000330   fbaud
20000334   match_hua
20000338   nahi_hua
2000033c   state
20000340   a
20000344   angle_rock
20000348   um6_angle
2000034c   ini
20000350   sign
20000354   yaw_raw
20000358   yaw_final
2000035c   pitch_raw
20000360   pitch_final
20000364   roll_raw
20000368   roll_final
2000036c   _lock
20000370   _unlock
20000374   __TI_cleanup_ptr
20000378   __TI_dtors_ptr
2000037c   _Fenv
20000380   _Tls_setup__Fenv
20000384   _Errno
20000388   main_func_sp
2000038c   data
20000404   address
20000408   batch_length
2000040c   checksum0
20000410   checksum1
20000414   checksum10
20000418   computed_checksum
2000041c   data_index
20000420   data_length
20000424   packet_has_data
20000428   packet_is_batch
2000042c   packet_type
20000430   pitch
20000434   pitch_rate
20000438   roll
2000043c   roll_rate
20000440   yaw
20000444   yaw_rate
ffffffff   __binit__
ffffffff   __c_args__
ffffffff   binit
UNDEFED    SHT$$INIT_ARRAY$$Base
UNDEFED    SHT$$INIT_ARRAY$$Limit

[208 symbols]
